target datalayout = "e-m:e-p270:32:32-p271:32:32-p272:64:64-i64:64-i128:128-f80:128-n8:16:32:64-S128"
target triple = "x86_64-pc-linux-gnu"

%struct._object = type { %union.anon, ptr }
%union.anon = type { i64 }
%struct._typeobject = type { %struct.PyVarObject, ptr, i64, i64, ptr, i64, ptr, ptr, ptr, ptr, ptr, ptr, ptr, ptr, ptr, ptr, ptr, ptr, ptr, i64, ptr, ptr, ptr, ptr, i64, ptr, ptr, ptr, ptr, ptr, ptr, ptr, ptr, ptr, i64, ptr, ptr, ptr, ptr, ptr, ptr, ptr, ptr, ptr, ptr, ptr, i32, ptr, ptr, i8, i16 }
%struct.PyVarObject = type { %struct._object, i64 }
%struct.PyFloatObject = type { %struct._object, double }

@.str.23 = private unnamed_addr constant [4 x i8] c"fma\00", align 1
@PyExc_OverflowError = external global ptr, align 8
@PyExc_ValueError = external global ptr, align 8
@PyFloat_Type = external global %struct._typeobject, align 8
@.str.65 = private unnamed_addr constant [25 x i8] c"invalid operation in fma\00", align 1
@.str.66 = private unnamed_addr constant [16 x i8] c"overflow in fma\00", align 1

; Function Attrs: inlinehint nounwind uwtable
define internal ptr @_Py_TYPE(ptr noundef %0) #6 {
  %2 = alloca ptr, align 8
  store ptr %0, ptr %2, align 8, !tbaa !3
  %3 = load ptr, ptr %2, align 8, !tbaa !3
  %4 = getelementptr inbounds nuw %struct._object, ptr %3, i32 0, i32 1
  %5 = load ptr, ptr %4, align 8, !tbaa !48
  ret ptr %5
}

; Function Attrs: nounwind uwtable
define internal ptr @math_fma_impl(ptr noundef %0, double noundef %1, double noundef %2, double noundef %3) #0 {
  %5 = alloca ptr, align 8
  %6 = alloca ptr, align 8
  %7 = alloca double, align 8
  %8 = alloca double, align 8
  %9 = alloca double, align 8
  %10 = alloca double, align 8
  %11 = alloca i32, align 4
  store ptr %0, ptr %6, align 8, !tbaa !3
  store double %1, ptr %7, align 8, !tbaa !13
  store double %2, ptr %8, align 8, !tbaa !13
  store double %3, ptr %9, align 8, !tbaa !13
  call void @llvm.lifetime.start.p0(i64 8, ptr %10) #10
  %12 = load double, ptr %7, align 8, !tbaa !13
  %13 = load double, ptr %8, align 8, !tbaa !13
  %14 = load double, ptr %9, align 8, !tbaa !13
  %15 = call double @llvm.fma.f64(double %12, double %13, double %14)
  store double %15, ptr %10, align 8, !tbaa !13
  %16 = load double, ptr %10, align 8, !tbaa !13
  %17 = call i1 @llvm.is.fpclass.f64(double %16, i32 504)
  br i1 %17, label %18, label %21

18:                                               ; preds = %4
  %19 = load double, ptr %10, align 8, !tbaa !13
  %20 = call ptr @PyFloat_FromDouble(double noundef %19)
  store ptr %20, ptr %5, align 8
  store i32 1, ptr %11, align 4
  br label %51

21:                                               ; preds = %4
  %22 = load double, ptr %10, align 8, !tbaa !13
  %23 = call i1 @llvm.is.fpclass.f64(double %22, i32 3)
  br i1 %23, label %24, label %36

24:                                               ; preds = %21
  %25 = load double, ptr %7, align 8, !tbaa !13
  %26 = call i1 @llvm.is.fpclass.f64(double %25, i32 3)
  br i1 %26, label %35, label %27

27:                                               ; preds = %24
  %28 = load double, ptr %8, align 8, !tbaa !13
  %29 = call i1 @llvm.is.fpclass.f64(double %28, i32 3)
  br i1 %29, label %35, label %30

30:                                               ; preds = %27
  %31 = load double, ptr %9, align 8, !tbaa !13
  %32 = call i1 @llvm.is.fpclass.f64(double %31, i32 3)
  br i1 %32, label %35, label %33

33:                                               ; preds = %30
  %34 = load ptr, ptr @PyExc_ValueError, align 8, !tbaa !3
  call void @PyErr_SetString(ptr noundef %34, ptr noundef @.str.65)
  store ptr null, ptr %5, align 8
  store i32 1, ptr %11, align 4
  br label %51

35:                                               ; preds = %30, %27, %24
  br label %48

36:                                               ; preds = %21
  %37 = load double, ptr %7, align 8, !tbaa !13
  %38 = call i1 @llvm.is.fpclass.f64(double %37, i32 504)
  br i1 %38, label %39, label %47

39:                                               ; preds = %36
  %40 = load double, ptr %8, align 8, !tbaa !13
  %41 = call i1 @llvm.is.fpclass.f64(double %40, i32 504)
  br i1 %41, label %42, label %47

42:                                               ; preds = %39
  %43 = load double, ptr %9, align 8, !tbaa !13
  %44 = call i1 @llvm.is.fpclass.f64(double %43, i32 504)
  br i1 %44, label %45, label %47

45:                                               ; preds = %42
  %46 = load ptr, ptr @PyExc_OverflowError, align 8, !tbaa !3
  call void @PyErr_SetString(ptr noundef %46, ptr noundef @.str.66)
  store ptr null, ptr %5, align 8
  store i32 1, ptr %11, align 4
  br label %51

47:                                               ; preds = %42, %39, %36
  br label %48

48:                                               ; preds = %47, %35
  %49 = load double, ptr %10, align 8, !tbaa !13
  %50 = call ptr @PyFloat_FromDouble(double noundef %49)
  store ptr %50, ptr %5, align 8
  store i32 1, ptr %11, align 4
  br label %51

51:                                               ; preds = %48, %45, %33, %18
  call void @llvm.lifetime.end.p0(i64 8, ptr %10) #10
  %52 = load ptr, ptr %5, align 8
  ret ptr %52
}

; Function Attrs: inlinehint nounwind uwtable
define internal double @PyFloat_AS_DOUBLE(ptr noundef %0) #6 {
  %2 = alloca ptr, align 8
  store ptr %0, ptr %2, align 8, !tbaa !3
  %3 = load ptr, ptr %2, align 8, !tbaa !3
  %4 = getelementptr inbounds nuw %struct.PyFloatObject, ptr %3, i32 0, i32 1
  %5 = load double, ptr %4, align 8, !tbaa !43
  ret double %5
}

; Function Attrs: inlinehint nounwind uwtable
define internal i32 @Py_IS_TYPE(ptr noundef %0, ptr noundef %1) #6 {
  %3 = alloca ptr, align 8
  %4 = alloca ptr, align 8
  store ptr %0, ptr %3, align 8, !tbaa !3
  store ptr %1, ptr %4, align 8, !tbaa !42
  %5 = load ptr, ptr %3, align 8, !tbaa !3
  %6 = call ptr @_Py_TYPE(ptr noundef %5)
  %7 = load ptr, ptr %4, align 8, !tbaa !42
  %8 = icmp eq ptr %6, %7
  %9 = zext i1 %8 to i32
  ret i32 %9
}

; Function Attrs: nounwind uwtable
define internal ptr @math_fma(ptr noundef %0, ptr noundef %1, i64 noundef %2) #0 {
  %4 = alloca ptr, align 8
  %5 = alloca ptr, align 8
  %6 = alloca i64, align 8
  %7 = alloca ptr, align 8
  %8 = alloca double, align 8
  %9 = alloca double, align 8
  %10 = alloca double, align 8
  store ptr %0, ptr %4, align 8, !tbaa !3
  store ptr %1, ptr %5, align 8, !tbaa !9
  store i64 %2, ptr %6, align 8, !tbaa !11
  call void @llvm.lifetime.start.p0(i64 8, ptr %7) #10
  store ptr null, ptr %7, align 8, !tbaa !3
  call void @llvm.lifetime.start.p0(i64 8, ptr %8) #10
  call void @llvm.lifetime.start.p0(i64 8, ptr %9) #10
  call void @llvm.lifetime.start.p0(i64 8, ptr %10) #10
  %11 = load i64, ptr %6, align 8, !tbaa !11
  %12 = icmp sle i64 3, %11
  br i1 %12, label %13, label %16

13:                                               ; preds = %3
  %14 = load i64, ptr %6, align 8, !tbaa !11
  %15 = icmp sle i64 %14, 3
  br i1 %15, label %21, label %16

16:                                               ; preds = %13, %3
  %17 = load i64, ptr %6, align 8, !tbaa !11
  %18 = call i32 @_PyArg_CheckPositional(ptr noundef @.str.23, i64 noundef %17, i64 noundef 3, i64 noundef 3)
  %19 = icmp ne i32 %18, 0
  br i1 %19, label %21, label %20

20:                                               ; preds = %16
  br label %96

21:                                               ; preds = %16, %13
  %22 = load ptr, ptr %5, align 8, !tbaa !9
  %23 = getelementptr ptr, ptr %22, i64 0
  %24 = load ptr, ptr %23, align 8, !tbaa !3
  %25 = call i32 @Py_IS_TYPE(ptr noundef %24, ptr noundef @PyFloat_Type)
  %26 = icmp ne i32 %25, 0
  br i1 %26, label %27, label %32

27:                                               ; preds = %21
  %28 = load ptr, ptr %5, align 8, !tbaa !9
  %29 = getelementptr ptr, ptr %28, i64 0
  %30 = load ptr, ptr %29, align 8, !tbaa !3
  %31 = call double @PyFloat_AS_DOUBLE(ptr noundef %30)
  store double %31, ptr %8, align 8, !tbaa !13
  br label %44

32:                                               ; preds = %21
  %33 = load ptr, ptr %5, align 8, !tbaa !9
  %34 = getelementptr ptr, ptr %33, i64 0
  %35 = load ptr, ptr %34, align 8, !tbaa !3
  %36 = call double @PyFloat_AsDouble(ptr noundef %35)
  store double %36, ptr %8, align 8, !tbaa !13
  %37 = load double, ptr %8, align 8, !tbaa !13
  %38 = fcmp oeq double %37, -1.000000e+00
  br i1 %38, label %39, label %43

39:                                               ; preds = %32
  %40 = call ptr @PyErr_Occurred()
  %41 = icmp ne ptr %40, null
  br i1 %41, label %42, label %43

42:                                               ; preds = %39
  br label %96

43:                                               ; preds = %39, %32
  br label %44

44:                                               ; preds = %43, %27
  %45 = load ptr, ptr %5, align 8, !tbaa !9
  %46 = getelementptr ptr, ptr %45, i64 1
  %47 = load ptr, ptr %46, align 8, !tbaa !3
  %48 = call i32 @Py_IS_TYPE(ptr noundef %47, ptr noundef @PyFloat_Type)
  %49 = icmp ne i32 %48, 0
  br i1 %49, label %50, label %55

50:                                               ; preds = %44
  %51 = load ptr, ptr %5, align 8, !tbaa !9
  %52 = getelementptr ptr, ptr %51, i64 1
  %53 = load ptr, ptr %52, align 8, !tbaa !3
  %54 = call double @PyFloat_AS_DOUBLE(ptr noundef %53)
  store double %54, ptr %9, align 8, !tbaa !13
  br label %67

55:                                               ; preds = %44
  %56 = load ptr, ptr %5, align 8, !tbaa !9
  %57 = getelementptr ptr, ptr %56, i64 1
  %58 = load ptr, ptr %57, align 8, !tbaa !3
  %59 = call double @PyFloat_AsDouble(ptr noundef %58)
  store double %59, ptr %9, align 8, !tbaa !13
  %60 = load double, ptr %9, align 8, !tbaa !13
  %61 = fcmp oeq double %60, -1.000000e+00
  br i1 %61, label %62, label %66

62:                                               ; preds = %55
  %63 = call ptr @PyErr_Occurred()
  %64 = icmp ne ptr %63, null
  br i1 %64, label %65, label %66

65:                                               ; preds = %62
  br label %96

66:                                               ; preds = %62, %55
  br label %67

67:                                               ; preds = %66, %50
  %68 = load ptr, ptr %5, align 8, !tbaa !9
  %69 = getelementptr ptr, ptr %68, i64 2
  %70 = load ptr, ptr %69, align 8, !tbaa !3
  %71 = call i32 @Py_IS_TYPE(ptr noundef %70, ptr noundef @PyFloat_Type)
  %72 = icmp ne i32 %71, 0
  br i1 %72, label %73, label %78

73:                                               ; preds = %67
  %74 = load ptr, ptr %5, align 8, !tbaa !9
  %75 = getelementptr ptr, ptr %74, i64 2
  %76 = load ptr, ptr %75, align 8, !tbaa !3
  %77 = call double @PyFloat_AS_DOUBLE(ptr noundef %76)
  store double %77, ptr %10, align 8, !tbaa !13
  br label %90

78:                                               ; preds = %67
  %79 = load ptr, ptr %5, align 8, !tbaa !9
  %80 = getelementptr ptr, ptr %79, i64 2
  %81 = load ptr, ptr %80, align 8, !tbaa !3
  %82 = call double @PyFloat_AsDouble(ptr noundef %81)
  store double %82, ptr %10, align 8, !tbaa !13
  %83 = load double, ptr %10, align 8, !tbaa !13
  %84 = fcmp oeq double %83, -1.000000e+00
  br i1 %84, label %85, label %89

85:                                               ; preds = %78
  %86 = call ptr @PyErr_Occurred()
  %87 = icmp ne ptr %86, null
  br i1 %87, label %88, label %89

88:                                               ; preds = %85
  br label %96

89:                                               ; preds = %85, %78
  br label %90

90:                                               ; preds = %89, %73
  %91 = load ptr, ptr %4, align 8, !tbaa !3
  %92 = load double, ptr %8, align 8, !tbaa !13
  %93 = load double, ptr %9, align 8, !tbaa !13
  %94 = load double, ptr %10, align 8, !tbaa !13
  %95 = call ptr @math_fma_impl(ptr noundef %91, double noundef %92, double noundef %93, double noundef %94)
  store ptr %95, ptr %7, align 8, !tbaa !3
  br label %96

96:                                               ; preds = %90, %88, %65, %42, %20
  %97 = load ptr, ptr %7, align 8, !tbaa !3
  call void @llvm.lifetime.end.p0(i64 8, ptr %10) #10
  call void @llvm.lifetime.end.p0(i64 8, ptr %9) #10
  call void @llvm.lifetime.end.p0(i64 8, ptr %8) #10
  call void @llvm.lifetime.end.p0(i64 8, ptr %7) #10
  ret ptr %97
}