; Function Attrs: nounwind uwtable
define internal ptr @math_fma(ptr readnone captures(none) %0, ptr noundef readonly captures(none) %1, i64 noundef %2) #0 {
  %or.cond = icmp eq i64 %2, 3
  br i1 %or.cond, label %6, label %4

4:                                                ; preds = %3
  %5 = tail call i32 @_PyArg_CheckPositional(ptr noundef nonnull @.str.23, i64 noundef %2, i64 noundef 3, i64 noundef 3) #16
  %.not = icmp eq i32 %5, 0
  br i1 %.not, label %math_fma_impl.exit, label %6

6:                                                ; preds = %3, %4
  %7 = load ptr, ptr %1, align 8, !tbaa !12
  %8 = getelementptr i8, ptr %7, i64 8
  %.val = load ptr, ptr %8, align 8, !tbaa !16
  %.not39 = icmp eq ptr %.val, @PyFloat_Type
  br i1 %.not39, label %9, label %11

9:                                                ; preds = %6
  %10 = getelementptr i8, ptr %7, i64 16
  %.val36 = load double, ptr %10, align 8, !tbaa !17
  br label %16

11:                                               ; preds = %6
  %12 = tail call double @PyFloat_AsDouble(ptr noundef nonnull %7) #16
  %13 = fcmp oeq double %12, -1.000000e+00
  br i1 %13, label %14, label %16

14:                                               ; preds = %11
  %15 = tail call ptr @PyErr_Occurred() #16
  %.not29 = icmp eq ptr %15, null
  br i1 %.not29, label %16, label %math_fma_impl.exit

16:                                               ; preds = %11, %14, %9
  %.021 = phi double [ %.val36, %9 ], [ -1.000000e+00, %14 ], [ %12, %11 ]
  %17 = getelementptr i8, ptr %1, i64 8
  %18 = load ptr, ptr %17, align 8, !tbaa !12
  %19 = getelementptr i8, ptr %18, i64 8
  %.val34 = load ptr, ptr %19, align 8, !tbaa !16
  %.not40 = icmp eq ptr %.val34, @PyFloat_Type
  br i1 %.not40, label %20, label %22

20:                                               ; preds = %16
  %21 = getelementptr i8, ptr %18, i64 16
  %.val37 = load double, ptr %21, align 8, !tbaa !17
  br label %27

22:                                               ; preds = %16
  %23 = tail call double @PyFloat_AsDouble(ptr noundef nonnull %18) #16
  %24 = fcmp oeq double %23, -1.000000e+00
  br i1 %24, label %25, label %27

25:                                               ; preds = %22
  %26 = tail call ptr @PyErr_Occurred() #16
  %.not31 = icmp eq ptr %26, null
  br i1 %.not31, label %27, label %math_fma_impl.exit

27:                                               ; preds = %22, %25, %20
  %.020 = phi double [ %.val37, %20 ], [ -1.000000e+00, %25 ], [ %23, %22 ]
  %28 = getelementptr i8, ptr %1, i64 16
  %29 = load ptr, ptr %28, align 8, !tbaa !12
  %30 = getelementptr i8, ptr %29, i64 8
  %.val35 = load ptr, ptr %30, align 8, !tbaa !16
  %.not41 = icmp eq ptr %.val35, @PyFloat_Type
  br i1 %.not41, label %31, label %33

31:                                               ; preds = %27
  %32 = getelementptr i8, ptr %29, i64 16
  %.val38 = load double, ptr %32, align 8, !tbaa !17
  br label %38

33:                                               ; preds = %27
  %34 = tail call double @PyFloat_AsDouble(ptr noundef nonnull %29) #16
  %35 = fcmp oeq double %34, -1.000000e+00
  br i1 %35, label %36, label %38

36:                                               ; preds = %33
  %37 = tail call ptr @PyErr_Occurred() #16
  %.not33 = icmp eq ptr %37, null
  br i1 %.not33, label %38, label %math_fma_impl.exit

38:                                               ; preds = %33, %36, %31
  %.0 = phi double [ %.val38, %31 ], [ -1.000000e+00, %36 ], [ %34, %33 ]
  %39 = tail call double @llvm.fma.f64(double %.021, double %.020, double %.0)
  %40 = tail call double @llvm.fabs.f64(double %39)
  %41 = fcmp ueq double %40, 0x7FF0000000000000
  br i1 %41, label %44, label %42

42:                                               ; preds = %38
  %43 = tail call ptr @PyFloat_FromDouble(double noundef %39) #16
  br label %math_fma_impl.exit

44:                                               ; preds = %38
  %45 = fcmp uno double %39, 0.000000e+00
  br i1 %45, label %46, label %50

46:                                               ; preds = %44
  %or.cond.i = fcmp uno double %.021, %.020
  %47 = fcmp uno double %.0, 0.000000e+00
  %or.cond14.i = or i1 %or.cond.i, %47
  br i1 %or.cond14.i, label %59, label %48

48:                                               ; preds = %46
  %49 = load ptr, ptr @PyExc_ValueError, align 8, !tbaa !12
  tail call void @PyErr_SetString(ptr noundef %49, ptr noundef nonnull @.str.65) #16
  br label %math_fma_impl.exit

50:                                               ; preds = %44
  %51 = tail call double @llvm.fabs.f64(double %.021)
  %52 = fcmp ueq double %51, 0x7FF0000000000000
  %53 = tail call double @llvm.fabs.f64(double %.020)
  %54 = fcmp ueq double %53, 0x7FF0000000000000
  %or.cond16.i = or i1 %52, %54
  %55 = tail call double @llvm.fabs.f64(double %.0)
  %56 = fcmp ueq double %55, 0x7FF0000000000000
  %or.cond18.i = or i1 %or.cond16.i, %56
  br i1 %or.cond18.i, label %59, label %57

57:                                               ; preds = %50
  %58 = load ptr, ptr @PyExc_OverflowError, align 8, !tbaa !12
  tail call void @PyErr_SetString(ptr noundef %58, ptr noundef nonnull @.str.66) #16
  br label %math_fma_impl.exit

59:                                               ; preds = %50, %46
  %60 = tail call ptr @PyFloat_FromDouble(double noundef %39) #16
  br label %math_fma_impl.exit

math_fma_impl.exit:                               ; preds = %59, %57, %48, %42, %36, %25, %14, %4
  %.022 = phi ptr [ null, %36 ], [ null, %25 ], [ null, %14 ], [ null, %4 ], [ %43, %42 ], [ %60, %59 ], [ null, %48 ], [ null, %57 ]
  ret ptr %.022
}